EXPORTS
    _Z12rtmidi_errorP7MidiApi15RtMidiErrorTypePKc @1
    _Z14callback_proxydPSt6vectorIhSaIhEEPv @2
    _ZN10MidiOutApiC1Ev @3
    _ZN10MidiOutApiC2Ev @4
    _ZN10MidiOutApiD0Ev @5
    _ZN10MidiOutApiD1Ev @6
    _ZN10MidiOutApiD2Ev @7
    _ZN11MidiInWinMM10initializeERKSs @8
    _ZN11MidiInWinMM11getPortNameEj @9
    _ZN11MidiInWinMM12getPortCountEv @10
    _ZN11MidiInWinMM13getCurrentApiEv @11
    _ZN11MidiInWinMM15openVirtualPortESs @12
    _ZN11MidiInWinMM8openPortEjSs @13
    _ZN11MidiInWinMM9closePortEv @14
    _ZN11MidiInWinMMC1ESsj @15
    _ZN11MidiInWinMMC2ESsj @16
    _ZN11MidiInWinMMD0Ev @17
    _ZN11MidiInWinMMD1Ev @18
    _ZN11MidiInWinMMD2Ev @19
    _ZN11RtMidiErrorC1ERKSsNS_4TypeE @20
    _ZN11RtMidiErrorD0Ev @21
    _ZN11RtMidiErrorD1Ev @22
    _ZN12MidiOutWinMM10initializeERKSs @23
    _ZN12MidiOutWinMM11getPortNameEj @24
    _ZN12MidiOutWinMM11sendMessageEPSt6vectorIhSaIhEE @25
    _ZN12MidiOutWinMM12getPortCountEv @26
    _ZN12MidiOutWinMM13getCurrentApiEv @27
    _ZN12MidiOutWinMM15openVirtualPortESs @28
    _ZN12MidiOutWinMM8openPortEjSs @29
    _ZN12MidiOutWinMM9closePortEv @30
    _ZN12MidiOutWinMMC1ESs @31
    _ZN12MidiOutWinMMC2ESs @32
    _ZN12MidiOutWinMMD0Ev @33
    _ZN12MidiOutWinMMD1Ev @34
    _ZN12MidiOutWinMMD2Ev @35
    _ZN6RtMidi10getVersionEv @36
    _ZN6RtMidi14getCompiledApiERSt6vectorINS_3ApiESaIS1_EE @37
    _ZN6RtMidiC1Ev @38
    _ZN6RtMidiC2Ev @39
    _ZN6RtMidiD0Ev @40
    _ZN6RtMidiD1Ev @41
    _ZN6RtMidiD2Ev @42
    _ZN7MidiApi16setErrorCallbackEPFvN11RtMidiError4TypeERKSsPvES4_ @43
    _ZN7MidiApi5errorEN11RtMidiError4TypeESs @44
    _ZN7MidiApiC1Ev @45
    _ZN7MidiApiC2Ev @46
    _ZN7MidiApiD0Ev @47
    _ZN7MidiApiD1Ev @48
    _ZN7MidiApiD2Ev @49
    _ZN8RtMidiIn11getPortNameEj @50
    _ZN8RtMidiIn11openMidiApiEN6RtMidi3ApiESsj @51
    _ZN8RtMidiIn12getPortCountEv @52
    _ZN8RtMidiIn15openVirtualPortESs @53
    _ZN8RtMidiIn16setErrorCallbackEPFvN11RtMidiError4TypeERKSsPvES4_ @54
    _ZN8RtMidiIn8openPortEjSs @55
    _ZN8RtMidiIn9closePortEv @56
    _ZN8RtMidiInC1EN6RtMidi3ApiESsj @57
    _ZN8RtMidiInC2EN6RtMidi3ApiESsj @58
    _ZN8RtMidiInD0Ev @59
    _ZN8RtMidiInD1Ev @60
    _ZN8RtMidiInD2Ev @61
    _ZN9MidiInApi10getMessageEPSt6vectorIhSaIhEE @62
    _ZN9MidiInApi11ignoreTypesEbbb @63
    _ZN9MidiInApi11setCallbackEPFvdPSt6vectorIhSaIhEEPvES4_ @64
    _ZN9MidiInApi14cancelCallbackEv @65
    _ZN9MidiInApiC1Ej @66
    _ZN9MidiInApiC2Ej @67
    _ZN9MidiInApiD0Ev @68
    _ZN9MidiInApiD1Ev @69
    _ZN9MidiInApiD2Ev @70
    _ZN9RtMidiOut11getPortNameEj @71
    _ZN9RtMidiOut11openMidiApiEN6RtMidi3ApiESs @72
    _ZN9RtMidiOut12getPortCountEv @73
    _ZN9RtMidiOut15openVirtualPortESs @74
    _ZN9RtMidiOut16setErrorCallbackEPFvN11RtMidiError4TypeERKSsPvES4_ @75
    _ZN9RtMidiOut8openPortEjSs @76
    _ZN9RtMidiOut9closePortEv @77
    _ZN9RtMidiOutC1EN6RtMidi3ApiESs @78
    _ZN9RtMidiOutC2EN6RtMidi3ApiESs @79
    _ZN9RtMidiOutD0Ev @80
    _ZN9RtMidiOutD1Ev @81
    _ZN9RtMidiOutD2Ev @82
    _ZNK11RtMidiError10getMessageEv @83
    _ZNK11RtMidiError12printMessageEv @84
    _ZNK11RtMidiError4whatEv @85
    _ZNK11RtMidiError7getTypeEv @86
    _ZNK8RtMidiIn10isPortOpenEv @87
    _ZNK9RtMidiOut10isPortOpenEv @88
    _ZNKSt5ctypeIcE8do_widenEc @89
    _ZNSs12_S_constructIPcEES0_T_S1_RKSaIcESt20forward_iterator_tag @90
    _ZNSt15basic_stringbufIcSt11char_traitsIcESaIcEED1Ev @91
    _ZNSt6vectorIN6RtMidi3ApiESaIS1_EE13_M_insert_auxEN9__gnu_cxx17__normal_iteratorIPS1_S3_EERKS1_ @92
    _ZNSt6vectorIhSaIhEE13_M_insert_auxEN9__gnu_cxx17__normal_iteratorIPhS1_EERKh @93
    _ZNSt6vectorIhSaIhEEaSERKS1_ @94
    _ZTI10MidiOutApi @95 DATA
    _ZTI11MidiInWinMM @96 DATA
    _ZTI11RtMidiError @97 DATA
    _ZTI12MidiOutWinMM @98 DATA
    _ZTI6RtMidi @99 DATA
    _ZTI7MidiApi @100 DATA
    _ZTI8RtMidiIn @101 DATA
    _ZTI9MidiInApi @102 DATA
    _ZTI9RtMidiOut @103 DATA
    _ZTISt9exception @104 DATA
    _ZTS10MidiOutApi @105 DATA
    _ZTS11MidiInWinMM @106 DATA
    _ZTS11RtMidiError @107 DATA
    _ZTS12MidiOutWinMM @108 DATA
    _ZTS6RtMidi @109 DATA
    _ZTS7MidiApi @110 DATA
    _ZTS8RtMidiIn @111 DATA
    _ZTS9MidiInApi @112 DATA
    _ZTS9RtMidiOut @113 DATA
    _ZTSSt9exception @114 DATA
    _ZTV10MidiOutApi @115 DATA
    _ZTV11MidiInWinMM @116 DATA
    _ZTV11RtMidiError @117 DATA
    _ZTV12MidiOutWinMM @118 DATA
    _ZTV6RtMidi @119 DATA
    _ZTV7MidiApi @120 DATA
    _ZTV8RtMidiIn @121 DATA
    _ZTV9MidiInApi @122 DATA
    _ZTV9RtMidiOut @123 DATA
    rtmidi_close_port @124
    rtmidi_get_compiled_api @125
    rtmidi_get_port_count @126
    rtmidi_get_port_name @127
    rtmidi_in_cancel_callback @128
    rtmidi_in_create @129
    rtmidi_in_create_default @130
    rtmidi_in_free @131
    rtmidi_in_get_current_api @132
    rtmidi_in_get_message @133
    rtmidi_in_ignore_types @134
    rtmidi_in_set_callback @135
    rtmidi_open_port @136
    rtmidi_open_virtual_port @137
    rtmidi_out_create @138
    rtmidi_out_create_default @139
    rtmidi_out_free @140
    rtmidi_out_get_current_api @141
    rtmidi_out_send_message @142
    rtmidi_sizeof_rtmidi_api @143
